target datalayout = "e-m:e-p270:32:32-p271:32:32-p272:64:64-i64:64-i128:128-f80:128-n8:16:32:64-S128"
target triple = "x86_64-pc-linux-gnu"

%struct.ParallelSlotArray = type { i32, ptr, ptr, i8, ptr, [0 x %struct.ParallelSlot] }
%struct.ParallelSlot = type { ptr, i8, ptr, ptr }
%struct._connParams = type { ptr, ptr, ptr, ptr, i32, ptr }

@.str.2 = private unnamed_addr constant [53 x i8] c"socket file descriptor out of range for select(): %d\00", align 1
@.str.3 = private unnamed_addr constant [16 x i8] c"Try fewer jobs.\00", align 1

; Function Attrs: nounwind uwtable
define internal void @connect_slot(ptr noundef %0, i32 noundef %1, ptr noundef %2) #0 {
  %4 = alloca ptr, align 8
  %5 = alloca i32, align 4
  %6 = alloca ptr, align 8
  %7 = alloca ptr, align 8
  %8 = alloca ptr, align 8
  %9 = alloca i32, align 4
  store ptr %0, ptr %4, align 8
  store i32 %1, ptr %5, align 4
  store ptr %2, ptr %6, align 8
  call void @llvm.lifetime.start.p0(i64 8, ptr %7) #8
  call void @llvm.lifetime.start.p0(i64 8, ptr %8) #8
  %10 = load ptr, ptr %4, align 8
  %11 = getelementptr inbounds nuw %struct.ParallelSlotArray, ptr %10, i32 0, i32 5
  %12 = load i32, ptr %5, align 4
  %13 = sext i32 %12 to i64
  %14 = getelementptr inbounds [0 x %struct.ParallelSlot], ptr %11, i64 0, i64 %13
  store ptr %14, ptr %8, align 8
  %15 = load ptr, ptr %4, align 8
  %16 = getelementptr inbounds nuw %struct.ParallelSlotArray, ptr %15, i32 0, i32 1
  %17 = load ptr, ptr %16, align 8
  %18 = getelementptr inbounds nuw %struct._connParams, ptr %17, i32 0, i32 5
  %19 = load ptr, ptr %18, align 8
  store ptr %19, ptr %7, align 8
  %20 = load ptr, ptr %6, align 8
  %21 = icmp ne ptr %20, null
  br i1 %21, label %22, label %28

22:                                               ; preds = %3
  %23 = load ptr, ptr %6, align 8
  %24 = load ptr, ptr %4, align 8
  %25 = getelementptr inbounds nuw %struct.ParallelSlotArray, ptr %24, i32 0, i32 1
  %26 = load ptr, ptr %25, align 8
  %27 = getelementptr inbounds nuw %struct._connParams, ptr %26, i32 0, i32 5
  store ptr %23, ptr %27, align 8
  br label %28

28:                                               ; preds = %22, %3
  %29 = load ptr, ptr %4, align 8
  %30 = getelementptr inbounds nuw %struct.ParallelSlotArray, ptr %29, i32 0, i32 1
  %31 = load ptr, ptr %30, align 8
  %32 = load ptr, ptr %4, align 8
  %33 = getelementptr inbounds nuw %struct.ParallelSlotArray, ptr %32, i32 0, i32 2
  %34 = load ptr, ptr %33, align 8
  %35 = load ptr, ptr %4, align 8
  %36 = getelementptr inbounds nuw %struct.ParallelSlotArray, ptr %35, i32 0, i32 3
  %37 = load i8, ptr %36, align 8, !range !4, !noundef !5
  %38 = trunc i8 %37 to i1
  %39 = call ptr @connectDatabase(ptr noundef %31, ptr noundef %34, i1 noundef zeroext %38, i1 noundef zeroext false, i1 noundef zeroext true)
  %40 = load ptr, ptr %8, align 8
  %41 = getelementptr inbounds nuw %struct.ParallelSlot, ptr %40, i32 0, i32 0
  store ptr %39, ptr %41, align 8
  %42 = load ptr, ptr %7, align 8
  %43 = load ptr, ptr %4, align 8
  %44 = getelementptr inbounds nuw %struct.ParallelSlotArray, ptr %43, i32 0, i32 1
  %45 = load ptr, ptr %44, align 8
  %46 = getelementptr inbounds nuw %struct._connParams, ptr %45, i32 0, i32 5
  store ptr %42, ptr %46, align 8
  call void @llvm.lifetime.start.p0(i64 4, ptr %9) #8
  %47 = load ptr, ptr %8, align 8
  %48 = getelementptr inbounds nuw %struct.ParallelSlot, ptr %47, i32 0, i32 0
  %49 = load ptr, ptr %48, align 8
  %50 = call i32 @PQsocket(ptr noundef %49)
  store i32 %50, ptr %9, align 4
  %51 = load i32, ptr %9, align 4
  %52 = icmp sge i32 %51, 1024
  br i1 %52, label %53, label %55

53:                                               ; preds = %28
  %54 = load i32, ptr %9, align 4
  call void (i32, i32, ptr, ...) @pg_log_generic(i32 noundef 4, i32 noundef 0, ptr noundef @.str.2, i32 noundef %54)
  call void (i32, i32, ptr, ...) @pg_log_generic(i32 noundef 4, i32 noundef 2, ptr noundef @.str.3)
  call void @exit(i32 noundef 1) #10
  unreachable

55:                                               ; preds = %28
  call void @llvm.lifetime.end.p0(i64 4, ptr %9) #8
  %56 = load ptr, ptr %4, align 8
  %57 = getelementptr inbounds nuw %struct.ParallelSlotArray, ptr %56, i32 0, i32 4
  %58 = load ptr, ptr %57, align 8
  %59 = icmp ne ptr %58, null
  br i1 %59, label %60, label %71

60:                                               ; preds = %55
  %61 = load ptr, ptr %8, align 8
  %62 = getelementptr inbounds nuw %struct.ParallelSlot, ptr %61, i32 0, i32 0
  %63 = load ptr, ptr %62, align 8
  %64 = load ptr, ptr %4, align 8
  %65 = getelementptr inbounds nuw %struct.ParallelSlotArray, ptr %64, i32 0, i32 4
  %66 = load ptr, ptr %65, align 8
  %67 = load ptr, ptr %4, align 8
  %68 = getelementptr inbounds nuw %struct.ParallelSlotArray, ptr %67, i32 0, i32 3
  %69 = load i8, ptr %68, align 8, !range !4, !noundef !5
  %70 = trunc i8 %69 to i1
  call void @executeCommand(ptr noundef %63, ptr noundef %66, i1 noundef zeroext %70)
  br label %71

71:                                               ; preds = %60, %55
  call void @llvm.lifetime.end.p0(i64 8, ptr %8) #8
  call void @llvm.lifetime.end.p0(i64 8, ptr %7) #8
  ret void
}