; Function Attrs: nounwind uwtable
define internal fastcc void @connect_slot(ptr noundef captures(none) %0, i32 noundef range(i32 0, -2147483648) %1, ptr noundef %2) unnamed_addr #0 {
  %4 = getelementptr inbounds nuw i8, ptr %0, i64 40
  %5 = zext nneg i32 %1 to i64
  %6 = getelementptr inbounds nuw [0 x %struct.ParallelSlot], ptr %4, i64 0, i64 %5
  %7 = getelementptr inbounds nuw i8, ptr %0, i64 8
  %8 = load ptr, ptr %7, align 8
  %9 = getelementptr inbounds nuw i8, ptr %8, i64 40
  %10 = load ptr, ptr %9, align 8
  %.not = icmp eq ptr %2, null
  br i1 %.not, label %12, label %11

11:                                               ; preds = %3
  store ptr %2, ptr %9, align 8
  %.pre = load ptr, ptr %7, align 8
  br label %12

12:                                               ; preds = %11, %3
  %13 = phi ptr [ %.pre, %11 ], [ %8, %3 ]
  %14 = getelementptr inbounds nuw i8, ptr %0, i64 16
  %15 = load ptr, ptr %14, align 8
  %16 = getelementptr inbounds nuw i8, ptr %0, i64 24
  %17 = load i8, ptr %16, align 8, !range !4, !noundef !5
  %18 = trunc nuw i8 %17 to i1
  %19 = tail call ptr @connectDatabase(ptr noundef %13, ptr noundef %15, i1 noundef zeroext %18, i1 noundef zeroext false, i1 noundef zeroext true) #9
  store ptr %19, ptr %6, align 8
  %20 = load ptr, ptr %7, align 8
  %21 = getelementptr inbounds nuw i8, ptr %20, i64 40
  store ptr %10, ptr %21, align 8
  %22 = load ptr, ptr %6, align 8
  %23 = tail call i32 @PQsocket(ptr noundef %22) #9
  %24 = icmp sgt i32 %23, 1023
  br i1 %24, label %25, label %26

25:                                               ; preds = %12
  tail call void (i32, i32, ptr, ...) @pg_log_generic(i32 noundef 4, i32 noundef 0, ptr noundef nonnull @.str.2, i32 noundef %23) #9
  tail call void (i32, i32, ptr, ...) @pg_log_generic(i32 noundef 4, i32 noundef 2, ptr noundef nonnull @.str.3) #9
  tail call void @exit(i32 noundef 1) #12
  unreachable

26:                                               ; preds = %12
  %27 = getelementptr inbounds nuw i8, ptr %0, i64 32
  %28 = load ptr, ptr %27, align 8
  %.not20 = icmp eq ptr %28, null
  br i1 %.not20, label %33, label %29

29:                                               ; preds = %26
  %30 = load ptr, ptr %6, align 8
  %31 = load i8, ptr %16, align 8, !range !4, !noundef !5
  %32 = trunc nuw i8 %31 to i1
  tail call void @executeCommand(ptr noundef %30, ptr noundef nonnull %28, i1 noundef zeroext %32) #9
  br label %33

33:                                               ; preds = %29, %26
  ret void
}